target datalayout = "e-m:e-p270:32:32-p271:32:32-p272:64:64-i64:64-i128:128-f80:128-n8:16:32:64-S128"
target triple = "x86_64-pc-linux-gnu"

@stderr = external global ptr, align 8
@.str.1 = private unnamed_addr constant [4 x i8] c"run\00", align 1
@stdout = external global ptr, align 8
@.str.46 = private unnamed_addr constant [42 x i8] c"Output on stdout before grandchild test.\0A\00", align 1
@.str.47 = private unnamed_addr constant [42 x i8] c"Output on stderr before grandchild test.\0A\00", align 1
@.str.48 = private unnamed_addr constant [41 x i8] c"Output on stdout after grandchild test.\0A\00", align 1
@.str.49 = private unnamed_addr constant [41 x i8] c"Output on stderr after grandchild test.\0A\00", align 1
@.str.50 = private unnamed_addr constant [4 x i8] c"109\00", align 1

; Function Attrs: nounwind uwtable
define internal void @testProcess_sleep(i32 noundef %0) #0 {
  %2 = alloca i32, align 4
  store i32 %0, ptr %2, align 4, !tbaa !9
  %3 = load i32, ptr %2, align 4, !tbaa !9
  %4 = call i32 @sleep(i32 noundef %3)
  ret void
}

; Function Attrs: nounwind uwtable
define internal i32 @test9(i32 noundef %0, ptr noundef %1) #0 {
  %3 = alloca i32, align 4
  %4 = alloca ptr, align 8
  %5 = alloca i32, align 4
  %6 = alloca [4 x ptr], align 16
  store i32 %0, ptr %3, align 4, !tbaa !9
  store ptr %1, ptr %4, align 8, !tbaa !4
  call void @llvm.lifetime.start.p0(i64 4, ptr %5) #8
  call void @llvm.lifetime.start.p0(i64 32, ptr %6) #8
  %7 = load ptr, ptr %4, align 8, !tbaa !4
  %8 = getelementptr inbounds ptr, ptr %7, i64 0
  %9 = load ptr, ptr %8, align 8, !tbaa !19
  %10 = getelementptr inbounds [4 x ptr], ptr %6, i64 0, i64 0
  store ptr %9, ptr %10, align 16, !tbaa !19
  %11 = getelementptr inbounds [4 x ptr], ptr %6, i64 0, i64 1
  store ptr @.str.1, ptr %11, align 8, !tbaa !19
  %12 = getelementptr inbounds [4 x ptr], ptr %6, i64 0, i64 2
  store ptr @.str.50, ptr %12, align 16, !tbaa !19
  %13 = getelementptr inbounds [4 x ptr], ptr %6, i64 0, i64 3
  store ptr null, ptr %13, align 8, !tbaa !19
  %14 = load ptr, ptr @stdout, align 8, !tbaa !15
  %15 = call i32 (ptr, ptr, ...) @fprintf(ptr noundef %14, ptr noundef @.str.46) #8
  %16 = load ptr, ptr @stderr, align 8, !tbaa !15
  %17 = call i32 (ptr, ptr, ...) @fprintf(ptr noundef %16, ptr noundef @.str.47) #8
  %18 = load ptr, ptr @stdout, align 8, !tbaa !15
  %19 = call i32 @fflush(ptr noundef %18)
  %20 = load ptr, ptr @stderr, align 8, !tbaa !15
  %21 = call i32 @fflush(ptr noundef %20)
  %22 = getelementptr inbounds [4 x ptr], ptr %6, i64 0, i64 0
  %23 = call i32 @runChild(ptr noundef %22, i32 noundef 4, i32 noundef 0, i32 noundef 0, i32 noundef 1, i32 noundef 1, i32 noundef 0, double noundef 3.000000e+01, i32 noundef 0, i32 noundef 1, i32 noundef 0, i32 noundef 0, i32 noundef 0)
  store i32 %23, ptr %5, align 4, !tbaa !9
  call void @testProcess_sleep(i32 noundef 1)
  %24 = load ptr, ptr @stdout, align 8, !tbaa !15
  %25 = call i32 (ptr, ptr, ...) @fprintf(ptr noundef %24, ptr noundef @.str.48) #8
  %26 = load ptr, ptr @stderr, align 8, !tbaa !15
  %27 = call i32 (ptr, ptr, ...) @fprintf(ptr noundef %26, ptr noundef @.str.49) #8
  %28 = load ptr, ptr @stdout, align 8, !tbaa !15
  %29 = call i32 @fflush(ptr noundef %28)
  %30 = load ptr, ptr @stderr, align 8, !tbaa !15
  %31 = call i32 @fflush(ptr noundef %30)
  %32 = load i32, ptr %5, align 4, !tbaa !9
  call void @llvm.lifetime.end.p0(i64 32, ptr %6) #8
  call void @llvm.lifetime.end.p0(i64 4, ptr %5) #8
  ret i32 %32
}